target datalayout = "e-m:e-p270:32:32-p271:32:32-p272:64:64-i64:64-i128:128-f80:128-n8:16:32:64-S128"
target triple = "x86_64-pc-linux-gnu"

%struct.gmx_tng_trajectory = type { ptr, i8, i64, i8, double, i8, i32, i32 }
%"class.gmx::ArrayRef" = type { %"struct.gmx::ArrayRefIter", %"struct.gmx::ArrayRefIter" }
%"struct.gmx::ArrayRefIter" = type { ptr }

@.str.2 = private unnamed_addr constant [1 x i8] zeroinitializer, align 1

; Function Attrs: mustprogress nounwind uwtable
define linkonce_odr noundef nonnull align 4 dereferenceable(4) ptr @_ZNK3gmx12ArrayRefIterIKiEdeEv(ptr noundef nonnull align 8 dereferenceable(8) %0) #5 comdat align 2 {
  %2 = alloca ptr, align 8
  store ptr %0, ptr %2, align 8, !tbaa !375
  %3 = load ptr, ptr %2, align 8
  %4 = getelementptr inbounds nuw %"struct.gmx::ArrayRefIter", ptr %3, i32 0, i32 0
  %5 = load ptr, ptr %4, align 8, !tbaa !377
  ret ptr %5
}

; Function Attrs: mustprogress nounwind uwtable
define linkonce_odr noundef nonnull align 8 dereferenceable(8) ptr @_ZN3gmx12ArrayRefIterIKiEpLEl(ptr noundef nonnull align 8 dereferenceable(8) %0, i64 noundef %1) #5 comdat align 2 {
  %3 = alloca ptr, align 8
  %4 = alloca i64, align 8
  store ptr %0, ptr %3, align 8, !tbaa !375
  store i64 %1, ptr %4, align 8, !tbaa !42
  %5 = load ptr, ptr %3, align 8
  %6 = load i64, ptr %4, align 8, !tbaa !42
  %7 = getelementptr inbounds nuw %"struct.gmx::ArrayRefIter", ptr %5, i32 0, i32 0
  %8 = load ptr, ptr %7, align 8, !tbaa !377
  %9 = getelementptr inbounds i32, ptr %8, i64 %6
  store ptr %9, ptr %7, align 8, !tbaa !377
  ret ptr %5
}

; Function Attrs: mustprogress nounwind uwtable
define linkonce_odr noundef nonnull align 8 dereferenceable(8) ptr @_ZNK3gmx5boost14stl_interfaces2v118iterator_interfaceINS_12ArrayRefIterIKiEESt26random_access_iterator_tagS5_RS5_PS5_lvE7derivedEv(ptr noundef nonnull align 1 dereferenceable(1) %0) #5 comdat align 2 {
  %2 = alloca ptr, align 8
  store ptr %0, ptr %2, align 8, !tbaa !389
  %3 = load ptr, ptr %2, align 8
  ret ptr %3
}

; Function Attrs: mustprogress nounwind uwtable
define linkonce_odr noundef i64 @_ZNK3gmx12ArrayRefIterIKiEmiES2_(ptr noundef nonnull align 8 dereferenceable(8) %0, ptr %1) #5 comdat align 2 {
  %3 = alloca %"struct.gmx::ArrayRefIter", align 8
  %4 = alloca ptr, align 8
  %5 = getelementptr inbounds nuw %"struct.gmx::ArrayRefIter", ptr %3, i32 0, i32 0
  store ptr %1, ptr %5, align 8
  store ptr %0, ptr %4, align 8, !tbaa !375
  %6 = load ptr, ptr %4, align 8
  %7 = getelementptr inbounds nuw %"struct.gmx::ArrayRefIter", ptr %6, i32 0, i32 0
  %8 = load ptr, ptr %7, align 8, !tbaa !377
  %9 = getelementptr inbounds nuw %"struct.gmx::ArrayRefIter", ptr %3, i32 0, i32 0
  %10 = load ptr, ptr %9, align 8, !tbaa !377
  %11 = ptrtoint ptr %8 to i64
  %12 = ptrtoint ptr %10 to i64
  %13 = sub i64 %11, %12
  %14 = sdiv exact i64 %13, 4
  ret i64 %14
}

; Function Attrs: mustprogress nounwind uwtable
define linkonce_odr noundef nonnull align 4 dereferenceable(4) ptr @_ZNK3gmx5boost14stl_interfaces2v118iterator_interfaceINS_12ArrayRefIterIKiEESt26random_access_iterator_tagS5_RS5_PS5_lvEixIS6_EEDTcmpLclsr3stdE7declvalIRT_EEfp_declsr3stdE7declvalISD_EEEl(ptr noundef nonnull align 1 dereferenceable(1) %0, i64 noundef %1) #5 comdat align 2 {
  %3 = alloca ptr, align 8
  %4 = alloca i64, align 8
  %5 = alloca %"struct.gmx::ArrayRefIter", align 8
  store ptr %0, ptr %3, align 8, !tbaa !389
  store i64 %1, ptr %4, align 8, !tbaa !42
  %6 = load ptr, ptr %3, align 8
  call void @llvm.lifetime.start.p0(i64 8, ptr %5) #16
  %7 = call noundef nonnull align 8 dereferenceable(8) ptr @_ZNK3gmx5boost14stl_interfaces2v118iterator_interfaceINS_12ArrayRefIterIKiEESt26random_access_iterator_tagS5_RS5_PS5_lvE7derivedEv(ptr noundef nonnull align 1 dereferenceable(1) %6) #16
  call void @llvm.memcpy.p0.p0.i64(ptr align 8 %5, ptr align 8 %7, i64 8, i1 false)
  %8 = load i64, ptr %4, align 8, !tbaa !42
  %9 = call noundef nonnull align 8 dereferenceable(8) ptr @_ZN3gmx12ArrayRefIterIKiEpLEl(ptr noundef nonnull align 8 dereferenceable(8) %5, i64 noundef %8) #16
  %10 = call noundef nonnull align 4 dereferenceable(4) ptr @_ZNK3gmx12ArrayRefIterIKiEdeEv(ptr noundef nonnull align 8 dereferenceable(8) %5) #16
  call void @llvm.lifetime.end.p0(i64 8, ptr %5) #16
  ret ptr %10
}

; Function Attrs: mustprogress nounwind uwtable
define linkonce_odr noundef i64 @_ZNK3gmx8ArrayRefIKiE4sizeEv(ptr noundef nonnull align 8 dereferenceable(16) %0) #5 comdat align 2 {
  %2 = alloca ptr, align 8
  %3 = alloca %"struct.gmx::ArrayRefIter", align 8
  store ptr %0, ptr %2, align 8, !tbaa !369
  %4 = load ptr, ptr %2, align 8
  %5 = getelementptr inbounds nuw %"class.gmx::ArrayRef", ptr %4, i32 0, i32 1
  %6 = getelementptr inbounds nuw %"class.gmx::ArrayRef", ptr %4, i32 0, i32 0
  call void @llvm.memcpy.p0.p0.i64(ptr align 8 %3, ptr align 8 %6, i64 8, i1 false)
  %7 = getelementptr inbounds nuw %"struct.gmx::ArrayRefIter", ptr %3, i32 0, i32 0
  %8 = load ptr, ptr %7, align 8
  %9 = call noundef i64 @_ZNK3gmx12ArrayRefIterIKiEmiES2_(ptr noundef nonnull align 8 dereferenceable(8) %5, ptr %8) #16
  ret i64 %9
}

; Function Attrs: mustprogress nounwind uwtable
define linkonce_odr noundef nonnull align 4 dereferenceable(4) ptr @_ZNK3gmx8ArrayRefIKiEixEm(ptr noundef nonnull align 8 dereferenceable(16) %0, i64 noundef %1) #5 comdat align 2 {
  %3 = alloca ptr, align 8
  %4 = alloca i64, align 8
  store ptr %0, ptr %3, align 8, !tbaa !369
  store i64 %1, ptr %4, align 8, !tbaa !42
  %5 = load ptr, ptr %3, align 8
  %6 = getelementptr inbounds nuw %"class.gmx::ArrayRef", ptr %5, i32 0, i32 0
  %7 = load i64, ptr %4, align 8, !tbaa !42
  %8 = call noundef nonnull align 4 dereferenceable(4) ptr @_ZNK3gmx5boost14stl_interfaces2v118iterator_interfaceINS_12ArrayRefIterIKiEESt26random_access_iterator_tagS5_RS5_PS5_lvEixIS6_EEDTcmpLclsr3stdE7declvalIRT_EEfp_declsr3stdE7declvalISD_EEEl(ptr noundef nonnull align 1 dereferenceable(1) %6, i64 noundef %7) #16
  ret ptr %8
}

; Function Attrs: mustprogress nounwind uwtable
define linkonce_odr noundef i64 @_ZNK3gmx8ArrayRefIKiE5ssizeEv(ptr noundef nonnull align 8 dereferenceable(16) %0) #5 comdat align 2 {
  %2 = alloca ptr, align 8
  store ptr %0, ptr %2, align 8, !tbaa !369
  %3 = load ptr, ptr %2, align 8
  %4 = call noundef i64 @_ZNK3gmx8ArrayRefIKiE4sizeEv(ptr noundef nonnull align 8 dereferenceable(16) %3)
  ret i64 %4
}

; Function Attrs: mustprogress uwtable
define void @_Z27gmx_tng_setup_atom_subgroupP18gmx_tng_trajectoryN3gmx8ArrayRefIKiEEPKc(ptr noundef %0, ptr %1, ptr %2, ptr noundef %3) #0 {
  %5 = alloca %"class.gmx::ArrayRef", align 8
  %6 = alloca ptr, align 8
  %7 = alloca ptr, align 8
  %8 = alloca i64, align 8
  %9 = alloca i64, align 8
  %10 = alloca i64, align 8
  %11 = alloca ptr, align 8
  %12 = alloca ptr, align 8
  %13 = alloca ptr, align 8
  %14 = alloca ptr, align 8
  %15 = alloca ptr, align 8
  %16 = alloca i32, align 4
  %17 = alloca ptr, align 8
  %18 = alloca i32, align 4
  %19 = alloca i64, align 8
  %20 = alloca [256 x i8], align 16
  %21 = alloca [256 x i8], align 16
  %22 = alloca i64, align 8
  %23 = getelementptr inbounds nuw { ptr, ptr }, ptr %5, i32 0, i32 0
  store ptr %1, ptr %23, align 8
  %24 = getelementptr inbounds nuw { ptr, ptr }, ptr %5, i32 0, i32 1
  store ptr %2, ptr %24, align 8
  store ptr %0, ptr %6, align 8, !tbaa !13
  store ptr %3, ptr %7, align 8, !tbaa !27
  call void @llvm.lifetime.start.p0(i64 8, ptr %8) #16
  call void @llvm.lifetime.start.p0(i64 8, ptr %9) #16
  call void @llvm.lifetime.start.p0(i64 8, ptr %10) #16
  call void @llvm.lifetime.start.p0(i64 8, ptr %11) #16
  call void @llvm.lifetime.start.p0(i64 8, ptr %12) #16
  call void @llvm.lifetime.start.p0(i64 8, ptr %13) #16
  call void @llvm.lifetime.start.p0(i64 8, ptr %14) #16
  call void @llvm.lifetime.start.p0(i64 8, ptr %15) #16
  call void @llvm.lifetime.start.p0(i64 4, ptr %16) #16
  call void @llvm.lifetime.start.p0(i64 8, ptr %17) #16
  %25 = load ptr, ptr %6, align 8, !tbaa !13
  %26 = getelementptr inbounds nuw %struct.gmx_tng_trajectory, ptr %25, i32 0, i32 0
  %27 = load ptr, ptr %26, align 8, !tbaa !83
  store ptr %27, ptr %17, align 8, !tbaa !26
  %28 = load ptr, ptr %17, align 8, !tbaa !26
  %29 = call i32 @tng_num_particles_get(ptr noundef %28, ptr noundef %8)
  %30 = load i64, ptr %8, align 8, !tbaa !42
  %31 = call noundef i64 @_ZNK3gmx8ArrayRefIKiE5ssizeEv(ptr noundef nonnull align 8 dereferenceable(16) %5)
  %32 = icmp eq i64 %30, %31
  br i1 %32, label %33, label %34

33:                                               ; preds = %4
  store i32 1, ptr %18, align 4
  br label %166

34:                                               ; preds = %4
  %35 = load ptr, ptr %17, align 8, !tbaa !26
  %36 = load ptr, ptr %7, align 8, !tbaa !27
  %37 = call i32 @tng_molecule_find(ptr noundef %35, ptr noundef %36, i64 noundef -1, ptr noundef %11)
  store i32 %37, ptr %16, align 4, !tbaa !371
  %38 = load i32, ptr %16, align 4, !tbaa !371
  %39 = icmp eq i32 %38, 0
  br i1 %39, label %40, label %58

40:                                               ; preds = %34
  %41 = load ptr, ptr %17, align 8, !tbaa !26
  %42 = load ptr, ptr %11, align 8, !tbaa !140
  %43 = call i32 @tng_molecule_num_atoms_get(ptr noundef %41, ptr noundef %42, ptr noundef %8)
  %44 = load ptr, ptr %17, align 8, !tbaa !26
  %45 = load ptr, ptr %11, align 8, !tbaa !140
  %46 = call i32 @tng_molecule_cnt_get(ptr noundef %44, ptr noundef %45, ptr noundef %9)
  %47 = load i64, ptr %8, align 8, !tbaa !42
  %48 = load i64, ptr %9, align 8, !tbaa !42
  %49 = mul nsw i64 %47, %48
  %50 = call noundef i64 @_ZNK3gmx8ArrayRefIKiE5ssizeEv(ptr noundef nonnull align 8 dereferenceable(16) %5)
  %51 = icmp eq i64 %49, %50
  br i1 %51, label %52, label %53

52:                                               ; preds = %40
  store i32 0, ptr %16, align 4, !tbaa !371
  br label %57

53:                                               ; preds = %40
  %54 = load ptr, ptr %17, align 8, !tbaa !26
  %55 = load ptr, ptr %11, align 8, !tbaa !140
  %56 = call i32 @tng_molecule_cnt_set(ptr noundef %54, ptr noundef %55, i64 noundef 0)
  store i32 1, ptr %16, align 4, !tbaa !371
  br label %57

57:                                               ; preds = %53, %52
  br label %58

58:                                               ; preds = %57, %34
  %59 = load i32, ptr %16, align 4, !tbaa !371
  %60 = icmp eq i32 %59, 1
  br i1 %60, label %61, label %142

61:                                               ; preds = %58
  %62 = load ptr, ptr %17, align 8, !tbaa !26
  %63 = call i32 @tng_molecule_alloc(ptr noundef %62, ptr noundef %11)
  %64 = load ptr, ptr %17, align 8, !tbaa !26
  %65 = load ptr, ptr %11, align 8, !tbaa !140
  %66 = load ptr, ptr %7, align 8, !tbaa !27
  %67 = call i32 @tng_molecule_name_set(ptr noundef %64, ptr noundef %65, ptr noundef %66)
  %68 = load ptr, ptr %17, align 8, !tbaa !26
  %69 = load ptr, ptr %11, align 8, !tbaa !140
  %70 = call i32 @tng_molecule_chain_add(ptr noundef %68, ptr noundef %69, ptr noundef @.str.2, ptr noundef %13)
  call void @llvm.lifetime.start.p0(i64 8, ptr %19) #16
  store i64 0, ptr %19, align 8, !tbaa !42
  br label %71

71:                                               ; preds = %133, %61
  %72 = load i64, ptr %19, align 8, !tbaa !42
  %73 = call noundef i64 @_ZNK3gmx8ArrayRefIKiE5ssizeEv(ptr noundef nonnull align 8 dereferenceable(16) %5)
  %74 = icmp slt i64 %72, %73
  br i1 %74, label %76, label %75

75:                                               ; preds = %71
  store i32 2, ptr %18, align 4
  call void @llvm.lifetime.end.p0(i64 8, ptr %19) #16
  br label %136

76:                                               ; preds = %71
  call void @llvm.lifetime.start.p0(i64 256, ptr %20) #16
  call void @llvm.lifetime.start.p0(i64 256, ptr %21) #16
  %77 = load ptr, ptr %17, align 8, !tbaa !26
  %78 = load i64, ptr %19, align 8, !tbaa !42
  %79 = call noundef nonnull align 4 dereferenceable(4) ptr @_ZNK3gmx8ArrayRefIKiEixEm(ptr noundef nonnull align 8 dereferenceable(16) %5, i64 noundef %78)
  %80 = load i32, ptr %79, align 4, !tbaa !159
  %81 = sext i32 %80 to i64
  %82 = getelementptr inbounds [256 x i8], ptr %20, i64 0, i64 0
  %83 = call i32 @tng_residue_name_of_particle_nr_get(ptr noundef %77, i64 noundef %81, ptr noundef %82, i32 noundef 256)
  store i32 %83, ptr %16, align 4, !tbaa !371
  %84 = load i32, ptr %16, align 4, !tbaa !371
  %85 = icmp ne i32 %84, 0
  br i1 %85, label %86, label %88

86:                                               ; preds = %76
  %87 = getelementptr inbounds [256 x i8], ptr %20, i64 0, i64 0
  store i8 0, ptr %87, align 16, !tbaa !9
  br label %88

88:                                               ; preds = %86, %76
  %89 = load ptr, ptr %17, align 8, !tbaa !26
  %90 = load ptr, ptr %13, align 8, !tbaa !189
  %91 = getelementptr inbounds [256 x i8], ptr %20, i64 0, i64 0
  %92 = call i32 @tng_chain_residue_find(ptr noundef %89, ptr noundef %90, ptr noundef %91, i64 noundef -1, ptr noundef %14)
  %93 = icmp ne i32 %92, 0
  br i1 %93, label %94, label %99

94:                                               ; preds = %88
  %95 = load ptr, ptr %17, align 8, !tbaa !26
  %96 = load ptr, ptr %13, align 8, !tbaa !189
  %97 = getelementptr inbounds [256 x i8], ptr %20, i64 0, i64 0
  %98 = call i32 @tng_chain_residue_add(ptr noundef %95, ptr noundef %96, ptr noundef %97, ptr noundef %14)
  br label %99

99:                                               ; preds = %94, %88
  %100 = load ptr, ptr %17, align 8, !tbaa !26
  %101 = load i64, ptr %19, align 8, !tbaa !42
  %102 = call noundef nonnull align 4 dereferenceable(4) ptr @_ZNK3gmx8ArrayRefIKiEixEm(ptr noundef nonnull align 8 dereferenceable(16) %5, i64 noundef %101)
  %103 = load i32, ptr %102, align 4, !tbaa !159
  %104 = sext i32 %103 to i64
  %105 = getelementptr inbounds [256 x i8], ptr %20, i64 0, i64 0
  %106 = call i32 @tng_atom_name_of_particle_nr_get(ptr noundef %100, i64 noundef %104, ptr noundef %105, i32 noundef 256)
  store i32 %106, ptr %16, align 4, !tbaa !371
  %107 = load i32, ptr %16, align 4, !tbaa !371
  %108 = icmp ne i32 %107, 0
  br i1 %108, label %109, label %111

109:                                              ; preds = %99
  %110 = getelementptr inbounds [256 x i8], ptr %20, i64 0, i64 0
  store i8 0, ptr %110, align 16, !tbaa !9
  br label %111

111:                                              ; preds = %109, %99
  %112 = load ptr, ptr %17, align 8, !tbaa !26
  %113 = load i64, ptr %19, align 8, !tbaa !42
  %114 = call noundef nonnull align 4 dereferenceable(4) ptr @_ZNK3gmx8ArrayRefIKiEixEm(ptr noundef nonnull align 8 dereferenceable(16) %5, i64 noundef %113)
  %115 = load i32, ptr %114, align 4, !tbaa !159
  %116 = sext i32 %115 to i64
  %117 = getelementptr inbounds [256 x i8], ptr %21, i64 0, i64 0
  %118 = call i32 @tng_atom_type_of_particle_nr_get(ptr noundef %112, i64 noundef %116, ptr noundef %117, i32 noundef 256)
  store i32 %118, ptr %16, align 4, !tbaa !371
  %119 = load i32, ptr %16, align 4, !tbaa !371
  %120 = icmp ne i32 %119, 0
  br i1 %120, label %121, label %123

121:                                              ; preds = %111
  %122 = getelementptr inbounds [256 x i8], ptr %21, i64 0, i64 0
  store i8 0, ptr %122, align 16, !tbaa !9
  br label %123

123:                                              ; preds = %121, %111
  %124 = load ptr, ptr %17, align 8, !tbaa !26
  %125 = load ptr, ptr %14, align 8, !tbaa !191
  %126 = getelementptr inbounds [256 x i8], ptr %20, i64 0, i64 0
  %127 = getelementptr inbounds [256 x i8], ptr %21, i64 0, i64 0
  %128 = load i64, ptr %19, align 8, !tbaa !42
  %129 = call noundef nonnull align 4 dereferenceable(4) ptr @_ZNK3gmx8ArrayRefIKiEixEm(ptr noundef nonnull align 8 dereferenceable(16) %5, i64 noundef %128)
  %130 = load i32, ptr %129, align 4, !tbaa !159
  %131 = sext i32 %130 to i64
  %132 = call i32 @tng_residue_atom_w_id_add(ptr noundef %124, ptr noundef %125, ptr noundef %126, ptr noundef %127, i64 noundef %131, ptr noundef %15)
  call void @llvm.lifetime.end.p0(i64 256, ptr %21) #16
  call void @llvm.lifetime.end.p0(i64 256, ptr %20) #16
  br label %133

133:                                              ; preds = %123
  %134 = load i64, ptr %19, align 8, !tbaa !42
  %135 = add nsw i64 %134, 1
  store i64 %135, ptr %19, align 8, !tbaa !42
  br label %71, !llvm.loop !373

136:                                              ; preds = %75
  %137 = load ptr, ptr %17, align 8, !tbaa !26
  %138 = call i32 @tng_molecule_existing_add(ptr noundef %137, ptr noundef %11)
  %139 = load ptr, ptr %17, align 8, !tbaa !26
  %140 = load ptr, ptr %11, align 8, !tbaa !140
  %141 = call i32 @tng_molecule_cnt_set(ptr noundef %139, ptr noundef %140, i64 noundef 1)
  br label %142

142:                                              ; preds = %136, %58
  %143 = load ptr, ptr %17, align 8, !tbaa !26
  %144 = call i32 @tng_num_molecule_types_get(ptr noundef %143, ptr noundef %10)
  call void @llvm.lifetime.start.p0(i64 8, ptr %22) #16
  store i64 0, ptr %22, align 8, !tbaa !42
  br label %145

145:                                              ; preds = %162, %142
  %146 = load i64, ptr %22, align 8, !tbaa !42
  %147 = load i64, ptr %10, align 8, !tbaa !42
  %148 = icmp slt i64 %146, %147
  br i1 %148, label %150, label %149

149:                                              ; preds = %145
  store i32 5, ptr %18, align 4
  call void @llvm.lifetime.end.p0(i64 8, ptr %22) #16
  br label %165

150:                                              ; preds = %145
  %151 = load ptr, ptr %17, align 8, !tbaa !26
  %152 = load i64, ptr %22, align 8, !tbaa !42
  %153 = call i32 @tng_molecule_of_index_get(ptr noundef %151, i64 noundef %152, ptr noundef %12)
  %154 = load ptr, ptr %12, align 8, !tbaa !140
  %155 = load ptr, ptr %11, align 8, !tbaa !140
  %156 = icmp eq ptr %154, %155
  br i1 %156, label %157, label %158

157:                                              ; preds = %150
  br label %162

158:                                              ; preds = %150
  %159 = load ptr, ptr %17, align 8, !tbaa !26
  %160 = load ptr, ptr %12, align 8, !tbaa !140
  %161 = call i32 @tng_molecule_cnt_set(ptr noundef %159, ptr noundef %160, i64 noundef 0)
  br label %162

162:                                              ; preds = %158, %157
  %163 = load i64, ptr %22, align 8, !tbaa !42
  %164 = add nsw i64 %163, 1
  store i64 %164, ptr %22, align 8, !tbaa !42
  br label %145, !llvm.loop !374

165:                                              ; preds = %149
  store i32 0, ptr %18, align 4
  br label %166

166:                                              ; preds = %165, %33
  call void @llvm.lifetime.end.p0(i64 8, ptr %17) #16
  call void @llvm.lifetime.end.p0(i64 4, ptr %16) #16
  call void @llvm.lifetime.end.p0(i64 8, ptr %15) #16
  call void @llvm.lifetime.end.p0(i64 8, ptr %14) #16
  call void @llvm.lifetime.end.p0(i64 8, ptr %13) #16
  call void @llvm.lifetime.end.p0(i64 8, ptr %12) #16
  call void @llvm.lifetime.end.p0(i64 8, ptr %11) #16
  call void @llvm.lifetime.end.p0(i64 8, ptr %10) #16
  call void @llvm.lifetime.end.p0(i64 8, ptr %9) #16
  call void @llvm.lifetime.end.p0(i64 8, ptr %8) #16
  %167 = load i32, ptr %18, align 4
  switch i32 %167, label %169 [
    i32 0, label %168
    i32 1, label %168
  ]

168:                                              ; preds = %166, %166
  ret void

169:                                              ; preds = %166
  unreachable
}