; Function Attrs: mustprogress uwtable
define void @_Z27gmx_tng_setup_atom_subgroupP18gmx_tng_trajectoryN3gmx8ArrayRefIKiEEPKc(ptr noundef readonly captures(none) %0, ptr %1, ptr %2, ptr noundef %3) local_unnamed_addr #0 {
  %5 = alloca i64, align 8
  %6 = alloca i64, align 8
  %7 = alloca i64, align 8
  %8 = alloca ptr, align 8
  %9 = alloca ptr, align 8
  %10 = alloca ptr, align 8
  %11 = alloca ptr, align 8
  %12 = alloca ptr, align 8
  %13 = alloca [256 x i8], align 16
  %14 = alloca [256 x i8], align 16
  call void @llvm.lifetime.start.p0(i64 8, ptr nonnull %5) #22
  call void @llvm.lifetime.start.p0(i64 8, ptr nonnull %6) #22
  call void @llvm.lifetime.start.p0(i64 8, ptr nonnull %7) #22
  call void @llvm.lifetime.start.p0(i64 8, ptr nonnull %8) #22
  call void @llvm.lifetime.start.p0(i64 8, ptr nonnull %9) #22
  call void @llvm.lifetime.start.p0(i64 8, ptr nonnull %10) #22
  call void @llvm.lifetime.start.p0(i64 8, ptr nonnull %11) #22
  call void @llvm.lifetime.start.p0(i64 8, ptr nonnull %12) #22
  %15 = load ptr, ptr %0, align 8, !tbaa !41
  %16 = call i32 @tng_num_particles_get(ptr noundef %15, ptr noundef nonnull %5)
  %17 = load i64, ptr %5, align 8, !tbaa !31
  %18 = ptrtoint ptr %2 to i64
  %19 = ptrtoint ptr %1 to i64
  %20 = sub i64 %18, %19
  %21 = ashr exact i64 %20, 2
  %22 = icmp eq i64 %17, %21
  br i1 %22, label %.loopexit, label %23

23:                                               ; preds = %4
  %24 = call i32 @tng_molecule_find(ptr noundef %15, ptr noundef %3, i64 noundef -1, ptr noundef nonnull %8)
  switch i32 %24, label %.thread50 [
    i32 0, label %25
    i32 1, label %36
  ]

25:                                               ; preds = %23
  %26 = load ptr, ptr %8, align 8, !tbaa !98
  %27 = call i32 @tng_molecule_num_atoms_get(ptr noundef %15, ptr noundef %26, ptr noundef nonnull %5)
  %28 = load ptr, ptr %8, align 8, !tbaa !98
  %29 = call i32 @tng_molecule_cnt_get(ptr noundef %15, ptr noundef %28, ptr noundef nonnull %6)
  %30 = load i64, ptr %5, align 8, !tbaa !31
  %31 = load i64, ptr %6, align 8, !tbaa !31
  %32 = mul nsw i64 %31, %30
  %33 = icmp eq i64 %32, %21
  br i1 %33, label %.thread50, label %.thread

.thread:                                          ; preds = %25
  %34 = load ptr, ptr %8, align 8, !tbaa !98
  %35 = call i32 @tng_molecule_cnt_set(ptr noundef %15, ptr noundef %34, i64 noundef 0)
  br label %36

36:                                               ; preds = %23, %.thread
  %37 = call i32 @tng_molecule_alloc(ptr noundef %15, ptr noundef nonnull %8)
  %38 = load ptr, ptr %8, align 8, !tbaa !98
  %39 = call i32 @tng_molecule_name_set(ptr noundef %15, ptr noundef %38, ptr noundef %3)
  %40 = load ptr, ptr %8, align 8, !tbaa !98
  %41 = call i32 @tng_molecule_chain_add(ptr noundef %15, ptr noundef %40, ptr noundef nonnull @.str.2, ptr noundef nonnull %10)
  %42 = icmp sgt i64 %21, 0
  br i1 %42, label %.lr.ph, label %._crit_edge

._crit_edge:                                      ; preds = %67, %36
  %43 = call i32 @tng_molecule_existing_add(ptr noundef %15, ptr noundef nonnull %8)
  %44 = load ptr, ptr %8, align 8, !tbaa !98
  %45 = call i32 @tng_molecule_cnt_set(ptr noundef %15, ptr noundef %44, i64 noundef 1)
  br label %.thread50

.lr.ph:                                           ; preds = %36, %67
  %.03552 = phi i64 [ %72, %67 ], [ 0, %36 ]
  call void @llvm.lifetime.start.p0(i64 256, ptr nonnull %13) #22
  call void @llvm.lifetime.start.p0(i64 256, ptr nonnull %14) #22
  %46 = getelementptr inbounds nuw i32, ptr %1, i64 %.03552
  %47 = load i32, ptr %46, align 4, !tbaa !146
  %48 = sext i32 %47 to i64
  %49 = call i32 @tng_residue_name_of_particle_nr_get(ptr noundef %15, i64 noundef %48, ptr noundef nonnull %13, i32 noundef 256)
  %.not = icmp eq i32 %49, 0
  br i1 %.not, label %51, label %50

50:                                               ; preds = %.lr.ph
  store i8 0, ptr %13, align 16, !tbaa !32
  br label %51

51:                                               ; preds = %50, %.lr.ph
  %52 = load ptr, ptr %10, align 8, !tbaa !118
  %53 = call i32 @tng_chain_residue_find(ptr noundef %15, ptr noundef %52, ptr noundef nonnull %13, i64 noundef -1, ptr noundef nonnull %11)
  %.not39 = icmp eq i32 %53, 0
  br i1 %.not39, label %57, label %54

54:                                               ; preds = %51
  %55 = load ptr, ptr %10, align 8, !tbaa !118
  %56 = call i32 @tng_chain_residue_add(ptr noundef %15, ptr noundef %55, ptr noundef nonnull %13, ptr noundef nonnull %11)
  br label %57

57:                                               ; preds = %54, %51
  %58 = load i32, ptr %46, align 4, !tbaa !146
  %59 = sext i32 %58 to i64
  %60 = call i32 @tng_atom_name_of_particle_nr_get(ptr noundef %15, i64 noundef %59, ptr noundef nonnull %13, i32 noundef 256)
  %.not40 = icmp eq i32 %60, 0
  br i1 %.not40, label %62, label %61

61:                                               ; preds = %57
  store i8 0, ptr %13, align 16, !tbaa !32
  br label %62

62:                                               ; preds = %61, %57
  %63 = load i32, ptr %46, align 4, !tbaa !146
  %64 = sext i32 %63 to i64
  %65 = call i32 @tng_atom_type_of_particle_nr_get(ptr noundef %15, i64 noundef %64, ptr noundef nonnull %14, i32 noundef 256)
  %.not41 = icmp eq i32 %65, 0
  br i1 %.not41, label %67, label %66

66:                                               ; preds = %62
  store i8 0, ptr %14, align 16, !tbaa !32
  br label %67

67:                                               ; preds = %66, %62
  %68 = load ptr, ptr %11, align 8, !tbaa !120
  %69 = load i32, ptr %46, align 4, !tbaa !146
  %70 = sext i32 %69 to i64
  %71 = call i32 @tng_residue_atom_w_id_add(ptr noundef %15, ptr noundef %68, ptr noundef nonnull %13, ptr noundef nonnull %14, i64 noundef %70, ptr noundef nonnull %12)
  call void @llvm.lifetime.end.p0(i64 256, ptr nonnull %14) #22
  call void @llvm.lifetime.end.p0(i64 256, ptr nonnull %13) #22
  %72 = add nuw nsw i64 %.03552, 1
  %exitcond.not = icmp eq i64 %72, %21
  br i1 %exitcond.not, label %._crit_edge, label %.lr.ph, !llvm.loop !265

.thread50:                                        ; preds = %23, %25, %._crit_edge
  %73 = call i32 @tng_num_molecule_types_get(ptr noundef %15, ptr noundef nonnull %7)
  %74 = load i64, ptr %7, align 8, !tbaa !31
  %75 = icmp sgt i64 %74, 0
  br i1 %75, label %.lr.ph54, label %.loopexit

.lr.ph54:                                         ; preds = %.thread50, %82
  %.053 = phi i64 [ %83, %82 ], [ 0, %.thread50 ]
  %76 = call i32 @tng_molecule_of_index_get(ptr noundef %15, i64 noundef %.053, ptr noundef nonnull %9)
  %77 = load ptr, ptr %9, align 8, !tbaa !98
  %78 = load ptr, ptr %8, align 8, !tbaa !98
  %79 = icmp eq ptr %77, %78
  br i1 %79, label %82, label %80

80:                                               ; preds = %.lr.ph54
  %81 = call i32 @tng_molecule_cnt_set(ptr noundef %15, ptr noundef %77, i64 noundef 0)
  br label %82

82:                                               ; preds = %.lr.ph54, %80
  %83 = add nuw nsw i64 %.053, 1
  %84 = load i64, ptr %7, align 8, !tbaa !31
  %85 = icmp slt i64 %83, %84
  br i1 %85, label %.lr.ph54, label %.loopexit, !llvm.loop !266

.loopexit:                                        ; preds = %82, %.thread50, %4
  call void @llvm.lifetime.end.p0(i64 8, ptr nonnull %12) #22
  call void @llvm.lifetime.end.p0(i64 8, ptr nonnull %11) #22
  call void @llvm.lifetime.end.p0(i64 8, ptr nonnull %10) #22
  call void @llvm.lifetime.end.p0(i64 8, ptr nonnull %9) #22
  call void @llvm.lifetime.end.p0(i64 8, ptr nonnull %8) #22
  call void @llvm.lifetime.end.p0(i64 8, ptr nonnull %7) #22
  call void @llvm.lifetime.end.p0(i64 8, ptr nonnull %6) #22
  call void @llvm.lifetime.end.p0(i64 8, ptr nonnull %5) #22
  ret void
}